target datalayout = "e-m:e-p270:32:32-p271:32:32-p272:64:64-i64:64-i128:128-f80:128-n8:16:32:64-S128"
target triple = "x86_64-pc-linux-gnu"

%class.svector.9 = type { %class.vector.10 }
%class.vector.10 = type { ptr }
%"class.euf::justification" = type { i32, %union.anon, %union.anon.41 }
%union.anon = type { ptr }
%union.anon.41 = type { ptr }
%"struct.euf::ac_plugin::node" = type { ptr, ptr, ptr, %"class.euf::justification", ptr, %class.svector.9, %class.svector.9 }

; Function Attrs: mustprogress nounwind uwtable
define linkonce_odr hidden void @_ZN6vectorIjLb0EjEC2Ev(ptr noundef nonnull align 8 dereferenceable(8) %0) unnamed_addr #5 comdat align 2 {
  %2 = alloca ptr, align 8
  store ptr %0, ptr %2, align 8, !tbaa !122
  %3 = load ptr, ptr %2, align 8
  %4 = getelementptr inbounds nuw %class.vector.10, ptr %3, i32 0, i32 0
  store ptr null, ptr %4, align 8, !tbaa !185
  ret void
}

; Function Attrs: mustprogress nounwind uwtable
define linkonce_odr hidden void @_ZN7svectorIjjEC2Ev(ptr noundef nonnull align 8 dereferenceable(8) %0) unnamed_addr #5 comdat align 2 {
  %2 = alloca ptr, align 8
  store ptr %0, ptr %2, align 8, !tbaa !118
  %3 = load ptr, ptr %2, align 8
  call void @_ZN6vectorIjLb0EjEC2Ev(ptr noundef nonnull align 8 dereferenceable(8) %3) #3
  ret void
}

; Function Attrs: mustprogress nounwind uwtable
define linkonce_odr hidden void @_ZN3euf13justificationC2Ev(ptr noundef nonnull align 8 dereferenceable(24) %0) unnamed_addr #5 comdat align 2 {
  %2 = alloca ptr, align 8
  store ptr %0, ptr %2, align 8, !tbaa !316
  %3 = load ptr, ptr %2, align 8
  %4 = getelementptr inbounds nuw %"class.euf::justification", ptr %3, i32 0, i32 0
  store i32 0, ptr %4, align 8, !tbaa !385
  %5 = getelementptr inbounds nuw %"class.euf::justification", ptr %3, i32 0, i32 1
  store i32 -1, ptr %5, align 8, !tbaa !189
  %6 = getelementptr inbounds nuw %"class.euf::justification", ptr %3, i32 0, i32 2
  store ptr null, ptr %6, align 8, !tbaa !189
  ret void
}

; Function Attrs: inlinehint mustprogress uwtable
define linkonce_odr hidden void @_ZN3euf9ac_plugin4nodeC2Ev(ptr noundef nonnull align 8 dereferenceable(72) %0) unnamed_addr #9 comdat align 2 {
  %2 = alloca ptr, align 8
  store ptr %0, ptr %2, align 8, !tbaa !164
  %3 = load ptr, ptr %2, align 8
  %4 = getelementptr inbounds nuw %"struct.euf::ac_plugin::node", ptr %3, i32 0, i32 3
  call void @_ZN3euf13justificationC2Ev(ptr noundef nonnull align 8 dereferenceable(24) %4)
  %5 = getelementptr inbounds nuw %"struct.euf::ac_plugin::node", ptr %3, i32 0, i32 4
  store ptr null, ptr %5, align 8, !tbaa !303
  %6 = getelementptr inbounds nuw %"struct.euf::ac_plugin::node", ptr %3, i32 0, i32 5
  call void @_ZN7svectorIjjEC2Ev(ptr noundef nonnull align 8 dereferenceable(8) %6) #3
  %7 = getelementptr inbounds nuw %"struct.euf::ac_plugin::node", ptr %3, i32 0, i32 6
  call void @_ZN7svectorIjjEC2Ev(ptr noundef nonnull align 8 dereferenceable(8) %7) #3
  ret void
}

; Function Attrs: mustprogress uwtable
define hidden noundef ptr @_ZN3euf9ac_plugin4node2mkER6regionPNS_5enodeE(ptr noundef nonnull align 8 dereferenceable(40) %0, ptr noundef %1) #4 align 2 {
  %3 = alloca ptr, align 8
  %4 = alloca ptr, align 8
  %5 = alloca ptr, align 8
  %6 = alloca ptr, align 8
  store ptr %0, ptr %3, align 8, !tbaa !94
  store ptr %1, ptr %4, align 8, !tbaa !151
  call void @llvm.lifetime.start.p0(i64 8, ptr %5) #3
  %7 = load ptr, ptr %3, align 8, !tbaa !94
  %8 = call noundef ptr @_ZN6region8allocateEm(ptr noundef nonnull align 8 dereferenceable(40) %7, i64 noundef 72)
  store ptr %8, ptr %5, align 8, !tbaa !300
  call void @llvm.lifetime.start.p0(i64 8, ptr %6) #3
  %9 = load ptr, ptr %5, align 8, !tbaa !300
  call void @llvm.memset.p0.i64(ptr align 8 %9, i8 0, i64 72, i1 false)
  call void @_ZN3euf9ac_plugin4nodeC2Ev(ptr noundef nonnull align 8 dereferenceable(72) %9)
  store ptr %9, ptr %6, align 8, !tbaa !164
  %10 = load ptr, ptr %4, align 8, !tbaa !151
  %11 = load ptr, ptr %6, align 8, !tbaa !164
  %12 = getelementptr inbounds nuw %"struct.euf::ac_plugin::node", ptr %11, i32 0, i32 0
  store ptr %10, ptr %12, align 8, !tbaa !194
  %13 = load ptr, ptr %6, align 8, !tbaa !164
  %14 = load ptr, ptr %6, align 8, !tbaa !164
  %15 = getelementptr inbounds nuw %"struct.euf::ac_plugin::node", ptr %14, i32 0, i32 1
  store ptr %13, ptr %15, align 8, !tbaa !196
  %16 = load ptr, ptr %6, align 8, !tbaa !164
  %17 = load ptr, ptr %6, align 8, !tbaa !164
  %18 = getelementptr inbounds nuw %"struct.euf::ac_plugin::node", ptr %17, i32 0, i32 2
  store ptr %16, ptr %18, align 8, !tbaa !298
  %19 = load ptr, ptr %6, align 8, !tbaa !164
  call void @llvm.lifetime.end.p0(i64 8, ptr %6) #3
  call void @llvm.lifetime.end.p0(i64 8, ptr %5) #3
  ret ptr %19
}