; Function Attrs: mustprogress uwtable
define hidden noundef ptr @_ZN3euf9ac_plugin4node2mkER6regionPNS_5enodeE(ptr noundef nonnull align 8 dereferenceable(40) %0, ptr noundef %1) local_unnamed_addr #3 align 2 {
  %3 = tail call noundef ptr @_ZN6region8allocateEm(ptr noundef nonnull align 8 dereferenceable(40) %0, i64 noundef 72)
  %4 = getelementptr inbounds nuw i8, ptr %3, i64 32
  %5 = getelementptr inbounds nuw i8, ptr %3, i64 24
  tail call void @llvm.memset.p0.i64(ptr noundef nonnull align 8 dereferenceable(16) %5, i8 0, i64 16, i1 false)
  store i32 -1, ptr %4, align 8, !tbaa !89
  %6 = getelementptr inbounds nuw i8, ptr %3, i64 40
  tail call void @llvm.memset.p0.i64(ptr noundef nonnull align 8 dereferenceable(32) %6, i8 0, i64 32, i1 false)
  store ptr %1, ptr %3, align 8, !tbaa !160
  %7 = getelementptr inbounds nuw i8, ptr %3, i64 8
  store ptr %3, ptr %7, align 8, !tbaa !158
  %8 = getelementptr inbounds nuw i8, ptr %3, i64 16
  store ptr %3, ptr %8, align 8, !tbaa !225
  ret ptr %3
}